target datalayout = "e-m:e-p270:32:32-p271:32:32-p272:64:64-i64:64-i128:128-f80:128-n8:16:32:64-S128"
target triple = "x86_64-pc-linux-gnu"

%struct.psa_global_data_t = type { [23 x ptr], [22 x i64], i8 }

@global_data = internal global %struct.psa_global_data_t zeroinitializer, align 8

; Function Attrs: nounwind uwtable
define hidden i32 @psa_initialize_key_slots() #0 {
  %1 = alloca i32, align 4
  %2 = call noalias ptr @calloc(i64 noundef 32, i64 noundef 56) #8
  store ptr %2, ptr getelementptr inbounds nuw ([23 x ptr], ptr @global_data, i64 0, i64 22), align 8, !tbaa !7
  %3 = load ptr, ptr getelementptr inbounds nuw ([23 x ptr], ptr @global_data, i64 0, i64 22), align 8, !tbaa !7
  %4 = icmp eq ptr %3, null
  br i1 %4, label %5, label %6

5:                                                ; preds = %0
  store i32 -141, ptr %1, align 4
  br label %7

6:                                                ; preds = %0
  store i8 1, ptr getelementptr inbounds nuw (%struct.psa_global_data_t, ptr @global_data, i32 0, i32 2), align 8, !tbaa !9
  store i32 0, ptr %1, align 4
  br label %7

7:                                                ; preds = %6, %5
  %8 = load i32, ptr %1, align 4
  ret i32 %8
}