; Function Attrs: mustprogress nofree nounwind willreturn memory(write, argmem: none, inaccessiblemem: readwrite) uwtable
define hidden range(i32 -141, 1) i32 @psa_initialize_key_slots() local_unnamed_addr #2 {
  %1 = tail call noalias dereferenceable_or_null(1792) ptr @calloc(i64 noundef 32, i64 noundef 56) #11
  store ptr %1, ptr getelementptr inbounds nuw (i8, ptr @global_data, i64 176), align 8, !tbaa !3
  %2 = icmp eq ptr %1, null
  br i1 %2, label %4, label %3

3:                                                ; preds = %0
  store i8 1, ptr getelementptr inbounds nuw (i8, ptr @global_data, i64 360), align 8, !tbaa !7
  br label %4

4:                                                ; preds = %0, %3
  %.0 = phi i32 [ 0, %3 ], [ -141, %0 ]
  ret i32 %.0
}